target datalayout = "e-m:e-p270:32:32-p271:32:32-p272:64:64-i64:64-i128:128-f80:128-n8:16:32:64-S128"
target triple = "x86_64-unknown-linux-gnu"

%"class.zmq::ws_decoder_t" = type { %"class.zmq::decoder_base_t", [8 x i8], i8, %"class.zmq::msg_t", i8, i64, i8, i64, i32, [4 x i8] }
%"class.zmq::decoder_base_t" = type { %"class.zmq::i_decoder", { i64, i64 }, ptr, i64, %"class.zmq::shared_message_memory_allocator", ptr }
%"class.zmq::i_decoder" = type { ptr }
%"class.zmq::shared_message_memory_allocator" = type { ptr, i64, i64, ptr, i64 }
%"class.zmq::msg_t" = type { %union.anon }
%union.anon = type { %struct.anon }
%struct.anon = type { ptr, [34 x i8], i8, i8, i32, %"union.zmq::msg_t::group_t" }
%"union.zmq::msg_t::group_t" = type { %struct.anon.1 }
%struct.anon.1 = type { i8, ptr }
%"struct.zmq::msg_t::content_t" = type { ptr, i64, ptr, ptr, %"class.zmq::atomic_counter_t" }
%"class.zmq::atomic_counter_t" = type { %"struct.std::atomic", [4 x i8] }
%"struct.std::atomic" = type { %"struct.std::__atomic_base" }
%"struct.std::__atomic_base" = type { i32 }

@stderr = external global ptr, align 8
@.str = private unnamed_addr constant [12 x i8] c"%s (%s:%d)\0A\00", align 1
@.str.1 = private unnamed_addr constant [110 x i8] c"generated/home/dtcxzyw/WorkSpace/Projects/compilers/llvm-opt-benchmark/bench/libzmq/libzmq/src/ws_decoder.cpp\00", align 1

; Function Attrs: mustprogress nounwind uwtable
define linkonce_odr void @_ZN3zmq14decoder_base_tINS_12ws_decoder_tENS_31shared_message_memory_allocatorEE9next_stepEPvmMS1_FiPKhE(ptr noundef nonnull align 8 dereferenceable(88) %this, ptr noundef %read_pos_, i64 noundef %to_read_, i64 %next_.coerce0, i64 %next_.coerce1) #5 comdat align 2 {
entry:
  %next_ = alloca { i64, i64 }, align 8
  %this.addr = alloca ptr, align 8
  %read_pos_.addr = alloca ptr, align 8
  %to_read_.addr = alloca i64, align 8
  %next_.addr = alloca { i64, i64 }, align 8
  %0 = getelementptr inbounds { i64, i64 }, ptr %next_, i32 0, i32 0
  store i64 %next_.coerce0, ptr %0, align 8
  %1 = getelementptr inbounds { i64, i64 }, ptr %next_, i32 0, i32 1
  store i64 %next_.coerce1, ptr %1, align 8
  %next_1 = load { i64, i64 }, ptr %next_, align 8
  store ptr %this, ptr %this.addr, align 8
  store ptr %read_pos_, ptr %read_pos_.addr, align 8
  store i64 %to_read_, ptr %to_read_.addr, align 8
  store { i64, i64 } %next_1, ptr %next_.addr, align 8
  %this2 = load ptr, ptr %this.addr, align 8
  %2 = load ptr, ptr %read_pos_.addr, align 8
  %_read_pos = getelementptr inbounds %"class.zmq::decoder_base_t", ptr %this2, i32 0, i32 2
  store ptr %2, ptr %_read_pos, align 8
  %3 = load i64, ptr %to_read_.addr, align 8
  %_to_read = getelementptr inbounds %"class.zmq::decoder_base_t", ptr %this2, i32 0, i32 3
  store i64 %3, ptr %_to_read, align 8
  %4 = load { i64, i64 }, ptr %next_.addr, align 8
  %_next = getelementptr inbounds %"class.zmq::decoder_base_t", ptr %this2, i32 0, i32 1
  store { i64, i64 } %4, ptr %_next, align 8
  ret void
}

; Function Attrs: mustprogress nounwind uwtable
define linkonce_odr void @_ZN3zmq31shared_message_memory_allocator15advance_contentEv(ptr noundef nonnull align 8 dereferenceable(40) %this) #5 comdat align 2 {
entry:
  %this.addr = alloca ptr, align 8
  store ptr %this, ptr %this.addr, align 8
  %this1 = load ptr, ptr %this.addr, align 8
  %_msg_content = getelementptr inbounds %"class.zmq::shared_message_memory_allocator", ptr %this1, i32 0, i32 3
  %0 = load ptr, ptr %_msg_content, align 8
  %incdec.ptr = getelementptr inbounds %"struct.zmq::msg_t::content_t", ptr %0, i32 1
  store ptr %incdec.ptr, ptr %_msg_content, align 8
  ret void
}

; Function Attrs: mustprogress nounwind uwtable
define linkonce_odr noundef ptr @_ZN3zmq31shared_message_memory_allocator15provide_contentEv(ptr noundef nonnull align 8 dereferenceable(40) %this) #5 comdat align 2 {
entry:
  %this.addr = alloca ptr, align 8
  store ptr %this, ptr %this.addr, align 8
  %this1 = load ptr, ptr %this.addr, align 8
  %_msg_content = getelementptr inbounds %"class.zmq::shared_message_memory_allocator", ptr %this1, i32 0, i32 3
  %0 = load ptr, ptr %_msg_content, align 8
  ret ptr %0
}

; Function Attrs: mustprogress nounwind uwtable
define linkonce_odr noundef ptr @_ZN3zmq31shared_message_memory_allocator6bufferEv(ptr noundef nonnull align 8 dereferenceable(40) %this) #5 comdat align 2 {
entry:
  %this.addr = alloca ptr, align 8
  store ptr %this, ptr %this.addr, align 8
  %this1 = load ptr, ptr %this.addr, align 8
  %_buf = getelementptr inbounds %"class.zmq::shared_message_memory_allocator", ptr %this1, i32 0, i32 0
  %0 = load ptr, ptr %_buf, align 8
  ret ptr %0
}

; Function Attrs: mustprogress nounwind uwtable
define linkonce_odr noundef nonnull align 8 dereferenceable(40) ptr @_ZN3zmq14decoder_base_tINS_12ws_decoder_tENS_31shared_message_memory_allocatorEE13get_allocatorEv(ptr noundef nonnull align 8 dereferenceable(88) %this) #5 comdat align 2 {
entry:
  %this.addr = alloca ptr, align 8
  store ptr %this, ptr %this.addr, align 8
  %this1 = load ptr, ptr %this.addr, align 8
  %_allocator = getelementptr inbounds %"class.zmq::decoder_base_t", ptr %this1, i32 0, i32 4
  ret ptr %_allocator
}

; Function Attrs: mustprogress uwtable
define noundef i32 @_ZN3zmq12ws_decoder_t10size_readyEPKh(ptr noundef nonnull align 8 dereferenceable(208) %this, ptr noundef %read_pos_) #0 align 2 {
entry:
  %retval = alloca i32, align 4
  %this.addr = alloca ptr, align 8
  %read_pos_.addr = alloca ptr, align 8
  %rc = alloca i32, align 4
  %allocator = alloca ptr, align 8
  %errstr = alloca ptr, align 8
  %errstr59 = alloca ptr, align 8
  %coerce = alloca { i64, i64 }, align 8
  store ptr %this, ptr %this.addr, align 8
  store ptr %read_pos_, ptr %read_pos_.addr, align 8
  %this1 = load ptr, ptr %this.addr, align 8
  %_max_msg_size = getelementptr inbounds %"class.zmq::ws_decoder_t", ptr %this1, i32 0, i32 5
  %0 = load i64, ptr %_max_msg_size, align 8
  %cmp = icmp sge i64 %0, 0
  br i1 %cmp, label %if.then, label %if.end5

if.then:                                          ; preds = %entry
  %_size = getelementptr inbounds %"class.zmq::ws_decoder_t", ptr %this1, i32 0, i32 7
  %1 = load i64, ptr %_size, align 8
  %_max_msg_size2 = getelementptr inbounds %"class.zmq::ws_decoder_t", ptr %this1, i32 0, i32 5
  %2 = load i64, ptr %_max_msg_size2, align 8
  %cmp3 = icmp ugt i64 %1, %2
  br i1 %cmp3, label %if.then4, label %if.end

if.then4:                                         ; preds = %if.then
  %call = call ptr @__errno_location() #10
  store i32 90, ptr %call, align 4
  store i32 -1, ptr %retval, align 4
  br label %return

if.end:                                           ; preds = %if.then
  br label %if.end5

if.end5:                                          ; preds = %if.end, %entry
  %_size6 = getelementptr inbounds %"class.zmq::ws_decoder_t", ptr %this1, i32 0, i32 7
  %3 = load i64, ptr %_size6, align 8
  %_size7 = getelementptr inbounds %"class.zmq::ws_decoder_t", ptr %this1, i32 0, i32 7
  %4 = load i64, ptr %_size7, align 8
  %cmp8 = icmp ne i64 %3, %4
  br i1 %cmp8, label %if.then9, label %if.end11

if.then9:                                         ; preds = %if.end5
  %call10 = call ptr @__errno_location() #10
  store i32 90, ptr %call10, align 4
  store i32 -1, ptr %retval, align 4
  br label %return

if.end11:                                         ; preds = %if.end5
  %_in_progress = getelementptr inbounds %"class.zmq::ws_decoder_t", ptr %this1, i32 0, i32 3
  %call12 = call noundef i32 @_ZN3zmq5msg_t5closeEv(ptr noundef nonnull align 8 dereferenceable(64) %_in_progress)
  store i32 %call12, ptr %rc, align 4
  %call13 = call noundef nonnull align 8 dereferenceable(40) ptr @_ZN3zmq14decoder_base_tINS_12ws_decoder_tENS_31shared_message_memory_allocatorEE13get_allocatorEv(ptr noundef nonnull align 8 dereferenceable(88) %this1)
  store ptr %call13, ptr %allocator, align 8
  %_zero_copy = getelementptr inbounds %"class.zmq::ws_decoder_t", ptr %this1, i32 0, i32 4
  %5 = load i8, ptr %_zero_copy, align 8
  %tobool = trunc i8 %5 to i1
  br i1 %tobool, label %lor.lhs.false, label %lor.end

lor.lhs.false:                                    ; preds = %if.end11
  %6 = load ptr, ptr %allocator, align 8
  %call14 = call noundef ptr @_ZN3zmq31shared_message_memory_allocator4dataEv(ptr noundef nonnull align 8 dereferenceable(40) %6)
  %7 = load ptr, ptr %read_pos_.addr, align 8
  %cmp15 = icmp ugt ptr %call14, %7
  br i1 %cmp15, label %lor.end, label %lor.lhs.false16

lor.lhs.false16:                                  ; preds = %lor.lhs.false
  %8 = load ptr, ptr %read_pos_.addr, align 8
  %9 = load ptr, ptr %allocator, align 8
  %call17 = call noundef ptr @_ZN3zmq31shared_message_memory_allocator4dataEv(ptr noundef nonnull align 8 dereferenceable(40) %9)
  %sub.ptr.lhs.cast = ptrtoint ptr %8 to i64
  %sub.ptr.rhs.cast = ptrtoint ptr %call17 to i64
  %sub.ptr.sub = sub i64 %sub.ptr.lhs.cast, %sub.ptr.rhs.cast
  %10 = load ptr, ptr %allocator, align 8
  %call18 = call noundef i64 @_ZNK3zmq31shared_message_memory_allocator4sizeEv(ptr noundef nonnull align 8 dereferenceable(40) %10)
  %cmp19 = icmp ugt i64 %sub.ptr.sub, %call18
  br i1 %cmp19, label %lor.end, label %lor.rhs

lor.rhs:                                          ; preds = %lor.lhs.false16
  %_size20 = getelementptr inbounds %"class.zmq::ws_decoder_t", ptr %this1, i32 0, i32 7
  %11 = load i64, ptr %_size20, align 8
  %12 = load ptr, ptr %allocator, align 8
  %call21 = call noundef ptr @_ZN3zmq31shared_message_memory_allocator4dataEv(ptr noundef nonnull align 8 dereferenceable(40) %12)
  %13 = load ptr, ptr %allocator, align 8
  %call22 = call noundef i64 @_ZNK3zmq31shared_message_memory_allocator4sizeEv(ptr noundef nonnull align 8 dereferenceable(40) %13)
  %add.ptr = getelementptr inbounds i8, ptr %call21, i64 %call22
  %14 = load ptr, ptr %read_pos_.addr, align 8
  %sub.ptr.lhs.cast23 = ptrtoint ptr %add.ptr to i64
  %sub.ptr.rhs.cast24 = ptrtoint ptr %14 to i64
  %sub.ptr.sub25 = sub i64 %sub.ptr.lhs.cast23, %sub.ptr.rhs.cast24
  %cmp26 = icmp ugt i64 %11, %sub.ptr.sub25
  br label %lor.end

lor.end:                                          ; preds = %lor.rhs, %lor.lhs.false16, %lor.lhs.false, %if.end11
  %15 = phi i1 [ true, %lor.lhs.false16 ], [ true, %lor.lhs.false ], [ true, %if.end11 ], [ %cmp26, %lor.rhs ]
  br i1 %15, label %if.then27, label %if.else

if.then27:                                        ; preds = %lor.end
  %_in_progress28 = getelementptr inbounds %"class.zmq::ws_decoder_t", ptr %this1, i32 0, i32 3
  %_size29 = getelementptr inbounds %"class.zmq::ws_decoder_t", ptr %this1, i32 0, i32 7
  %16 = load i64, ptr %_size29, align 8
  %call30 = call noundef i32 @_ZN3zmq5msg_t9init_sizeEm(ptr noundef nonnull align 8 dereferenceable(64) %_in_progress28, i64 noundef %16)
  store i32 %call30, ptr %rc, align 4
  br label %if.end40

if.else:                                          ; preds = %lor.end
  %_in_progress31 = getelementptr inbounds %"class.zmq::ws_decoder_t", ptr %this1, i32 0, i32 3
  %17 = load ptr, ptr %read_pos_.addr, align 8
  %_size32 = getelementptr inbounds %"class.zmq::ws_decoder_t", ptr %this1, i32 0, i32 7
  %18 = load i64, ptr %_size32, align 8
  %19 = load ptr, ptr %allocator, align 8
  %call33 = call noundef ptr @_ZN3zmq31shared_message_memory_allocator6bufferEv(ptr noundef nonnull align 8 dereferenceable(40) %19)
  %20 = load ptr, ptr %allocator, align 8
  %call34 = call noundef ptr @_ZN3zmq31shared_message_memory_allocator15provide_contentEv(ptr noundef nonnull align 8 dereferenceable(40) %20)
  %call35 = call noundef i32 @_ZN3zmq5msg_t4initEPvmPFvS1_S1_ES1_PNS0_9content_tE(ptr noundef nonnull align 8 dereferenceable(64) %_in_progress31, ptr noundef %17, i64 noundef %18, ptr noundef @_ZN3zmq31shared_message_memory_allocator12call_dec_refEPvS1_, ptr noundef %call33, ptr noundef %call34)
  store i32 %call35, ptr %rc, align 4
  %_in_progress36 = getelementptr inbounds %"class.zmq::ws_decoder_t", ptr %this1, i32 0, i32 3
  %call37 = call noundef zeroext i1 @_ZNK3zmq5msg_t8is_zcmsgEv(ptr noundef nonnull align 8 dereferenceable(64) %_in_progress36)
  br i1 %call37, label %if.then38, label %if.end39

if.then38:                                        ; preds = %if.else
  %21 = load ptr, ptr %allocator, align 8
  call void @_ZN3zmq31shared_message_memory_allocator15advance_contentEv(ptr noundef nonnull align 8 dereferenceable(40) %21)
  %22 = load ptr, ptr %allocator, align 8
  call void @_ZN3zmq31shared_message_memory_allocator7inc_refEv(ptr noundef nonnull align 8 dereferenceable(40) %22)
  br label %if.end39

if.end39:                                         ; preds = %if.then38, %if.else
  br label %if.end40

if.end40:                                         ; preds = %if.end39, %if.then27
  %23 = load i32, ptr %rc, align 4
  %conv = sext i32 %23 to i64
  %tobool41 = icmp ne i64 %conv, 0
  br i1 %tobool41, label %if.then42, label %if.end67

if.then42:                                        ; preds = %if.end40
  br label %do.body

do.body:                                          ; preds = %if.then42
  %call43 = call ptr @__errno_location() #10
  %24 = load i32, ptr %call43, align 4
  %cmp44 = icmp eq i32 %24, 12
  %lnot = xor i1 %cmp44, true
  br i1 %lnot, label %if.then46, label %if.end51

if.then46:                                        ; preds = %do.body
  %call47 = call ptr @__errno_location() #10
  %25 = load i32, ptr %call47, align 4
  %call48 = call ptr @strerror(i32 noundef %25) #11
  store ptr %call48, ptr %errstr, align 8
  %26 = load ptr, ptr @stderr, align 8
  %27 = load ptr, ptr %errstr, align 8
  %call49 = call i32 (ptr, ptr, ...) @fprintf(ptr noundef %26, ptr noundef @.str, ptr noundef %27, ptr noundef @.str.1, i32 noundef 214)
  %28 = load ptr, ptr @stderr, align 8
  %call50 = call i32 @fflush(ptr noundef %28)
  %29 = load ptr, ptr %errstr, align 8
  call void @_ZN3zmq9zmq_abortEPKc(ptr noundef %29)
  br label %if.end51

if.end51:                                         ; preds = %if.then46, %do.body
  br label %do.end

do.end:                                           ; preds = %if.end51
  %_in_progress52 = getelementptr inbounds %"class.zmq::ws_decoder_t", ptr %this1, i32 0, i32 3
  %call53 = call noundef i32 @_ZN3zmq5msg_t4initEv(ptr noundef nonnull align 8 dereferenceable(64) %_in_progress52)
  store i32 %call53, ptr %rc, align 4
  br label %do.body54

do.body54:                                        ; preds = %do.end
  %30 = load i32, ptr %rc, align 4
  %cmp55 = icmp eq i32 %30, 0
  %lnot56 = xor i1 %cmp55, true
  br i1 %lnot56, label %if.then58, label %if.end64

if.then58:                                        ; preds = %do.body54
  %call60 = call ptr @__errno_location() #10
  %31 = load i32, ptr %call60, align 4
  %call61 = call ptr @strerror(i32 noundef %31) #11
  store ptr %call61, ptr %errstr59, align 8
  %32 = load ptr, ptr @stderr, align 8
  %33 = load ptr, ptr %errstr59, align 8
  %call62 = call i32 (ptr, ptr, ...) @fprintf(ptr noundef %32, ptr noundef @.str, ptr noundef %33, ptr noundef @.str.1, i32 noundef 216)
  %34 = load ptr, ptr @stderr, align 8
  %call63 = call i32 @fflush(ptr noundef %34)
  %35 = load ptr, ptr %errstr59, align 8
  call void @_ZN3zmq9zmq_abortEPKc(ptr noundef %35)
  br label %if.end64

if.end64:                                         ; preds = %if.then58, %do.body54
  br label %do.end65

do.end65:                                         ; preds = %if.end64
  %call66 = call ptr @__errno_location() #10
  store i32 12, ptr %call66, align 4
  store i32 -1, ptr %retval, align 4
  br label %return

if.end67:                                         ; preds = %if.end40
  %_in_progress68 = getelementptr inbounds %"class.zmq::ws_decoder_t", ptr %this1, i32 0, i32 3
  %_msg_flags = getelementptr inbounds %"class.zmq::ws_decoder_t", ptr %this1, i32 0, i32 2
  %36 = load i8, ptr %_msg_flags, align 8
  call void @_ZN3zmq5msg_t9set_flagsEh(ptr noundef nonnull align 8 dereferenceable(64) %_in_progress68, i8 noundef zeroext %36)
  %_in_progress69 = getelementptr inbounds %"class.zmq::ws_decoder_t", ptr %this1, i32 0, i32 3
  %call70 = call noundef ptr @_ZN3zmq5msg_t4dataEv(ptr noundef nonnull align 8 dereferenceable(64) %_in_progress69)
  %_in_progress71 = getelementptr inbounds %"class.zmq::ws_decoder_t", ptr %this1, i32 0, i32 3
  %call72 = call noundef i64 @_ZNK3zmq5msg_t4sizeEv(ptr noundef nonnull align 8 dereferenceable(64) %_in_progress71)
  store { i64, i64 } { i64 ptrtoint (ptr @_ZN3zmq12ws_decoder_t13message_readyEPKh to i64), i64 0 }, ptr %coerce, align 8
  %37 = getelementptr inbounds { i64, i64 }, ptr %coerce, i32 0, i32 0
  %38 = load i64, ptr %37, align 8
  %39 = getelementptr inbounds { i64, i64 }, ptr %coerce, i32 0, i32 1
  %40 = load i64, ptr %39, align 8
  call void @_ZN3zmq14decoder_base_tINS_12ws_decoder_tENS_31shared_message_memory_allocatorEE9next_stepEPvmMS1_FiPKhE(ptr noundef nonnull align 8 dereferenceable(88) %this1, ptr noundef %call70, i64 noundef %call72, i64 %38, i64 %40)
  store i32 0, ptr %retval, align 4
  br label %return

return:                                           ; preds = %if.end67, %do.end65, %if.then9, %if.then4
  %41 = load i32, ptr %retval, align 4
  ret i32 %41
}