; Function Attrs: mustprogress uwtable
define noundef i32 @_ZN3zmq12ws_decoder_t10size_readyEPKh(ptr noundef nonnull align 8 dereferenceable(208) %this, ptr noundef %read_pos_) local_unnamed_addr #0 align 2 {
entry:
  %_max_msg_size = getelementptr inbounds i8, ptr %this, i64 176
  %0 = load i64, ptr %_max_msg_size, align 8
  %cmp = icmp sgt i64 %0, -1
  %_size = getelementptr inbounds i8, ptr %this, i64 192
  %1 = load i64, ptr %_size, align 8
  %cmp3 = icmp ugt i64 %1, %0
  %or.cond = select i1 %cmp, i1 %cmp3, i1 false
  br i1 %or.cond, label %if.then4, label %if.end5

if.then4:                                         ; preds = %entry
  %call = tail call ptr @__errno_location() #14
  store i32 90, ptr %call, align 4
  br label %return

if.end5:                                          ; preds = %entry
  %_in_progress = getelementptr inbounds i8, ptr %this, i64 104
  %call12 = tail call noundef i32 @_ZN3zmq5msg_t5closeEv(ptr noundef nonnull align 8 dereferenceable(64) %_in_progress)
  %_allocator.i = getelementptr inbounds i8, ptr %this, i64 40
  %_zero_copy = getelementptr inbounds i8, ptr %this, i64 168
  %2 = load i8, ptr %_zero_copy, align 8
  %3 = and i8 %2, 1
  %tobool.not = icmp eq i8 %3, 0
  br i1 %tobool.not, label %if.then27, label %lor.lhs.false

lor.lhs.false:                                    ; preds = %if.end5
  %call14 = tail call noundef ptr @_ZN3zmq31shared_message_memory_allocator4dataEv(ptr noundef nonnull align 8 dereferenceable(40) %_allocator.i)
  %cmp15 = icmp ugt ptr %call14, %read_pos_
  br i1 %cmp15, label %if.then27, label %lor.lhs.false16

lor.lhs.false16:                                  ; preds = %lor.lhs.false
  %call17 = tail call noundef ptr @_ZN3zmq31shared_message_memory_allocator4dataEv(ptr noundef nonnull align 8 dereferenceable(40) %_allocator.i)
  %sub.ptr.lhs.cast = ptrtoint ptr %read_pos_ to i64
  %sub.ptr.rhs.cast = ptrtoint ptr %call17 to i64
  %sub.ptr.sub = sub i64 %sub.ptr.lhs.cast, %sub.ptr.rhs.cast
  %call18 = tail call noundef i64 @_ZNK3zmq31shared_message_memory_allocator4sizeEv(ptr noundef nonnull align 8 dereferenceable(40) %_allocator.i)
  %cmp19 = icmp ugt i64 %sub.ptr.sub, %call18
  br i1 %cmp19, label %if.then27, label %lor.rhs

lor.rhs:                                          ; preds = %lor.lhs.false16
  %4 = load i64, ptr %_size, align 8
  %call21 = tail call noundef ptr @_ZN3zmq31shared_message_memory_allocator4dataEv(ptr noundef nonnull align 8 dereferenceable(40) %_allocator.i)
  %call22 = tail call noundef i64 @_ZNK3zmq31shared_message_memory_allocator4sizeEv(ptr noundef nonnull align 8 dereferenceable(40) %_allocator.i)
  %add.ptr = getelementptr inbounds i8, ptr %call21, i64 %call22
  %sub.ptr.lhs.cast23 = ptrtoint ptr %add.ptr to i64
  %sub.ptr.sub25 = sub i64 %sub.ptr.lhs.cast23, %sub.ptr.lhs.cast
  %cmp26 = icmp ugt i64 %4, %sub.ptr.sub25
  br i1 %cmp26, label %if.then27, label %if.else

if.then27:                                        ; preds = %lor.lhs.false16, %lor.lhs.false, %if.end5, %lor.rhs
  %5 = load i64, ptr %_size, align 8
  %call30 = tail call noundef i32 @_ZN3zmq5msg_t9init_sizeEm(ptr noundef nonnull align 8 dereferenceable(64) %_in_progress, i64 noundef %5)
  br label %if.end40

if.else:                                          ; preds = %lor.rhs
  %6 = load i64, ptr %_size, align 8
  %7 = load ptr, ptr %_allocator.i, align 8
  %_msg_content.i = getelementptr inbounds i8, ptr %this, i64 64
  %8 = load ptr, ptr %_msg_content.i, align 8
  %call35 = tail call noundef i32 @_ZN3zmq5msg_t4initEPvmPFvS1_S1_ES1_PNS0_9content_tE(ptr noundef nonnull align 8 dereferenceable(64) %_in_progress, ptr noundef %read_pos_, i64 noundef %6, ptr noundef nonnull @_ZN3zmq31shared_message_memory_allocator12call_dec_refEPvS1_, ptr noundef %7, ptr noundef %8)
  %call37 = tail call noundef zeroext i1 @_ZNK3zmq5msg_t8is_zcmsgEv(ptr noundef nonnull align 8 dereferenceable(64) %_in_progress)
  br i1 %call37, label %if.then38, label %if.end40

if.then38:                                        ; preds = %if.else
  %9 = load ptr, ptr %_msg_content.i, align 8
  %incdec.ptr.i = getelementptr inbounds i8, ptr %9, i64 40
  store ptr %incdec.ptr.i, ptr %_msg_content.i, align 8
  tail call void @_ZN3zmq31shared_message_memory_allocator7inc_refEv(ptr noundef nonnull align 8 dereferenceable(40) %_allocator.i)
  br label %if.end40

if.end40:                                         ; preds = %if.else, %if.then38, %if.then27
  %rc.0 = phi i32 [ %call30, %if.then27 ], [ %call35, %if.then38 ], [ %call35, %if.else ]
  %tobool41.not = icmp eq i32 %rc.0, 0
  br i1 %tobool41.not, label %if.end67, label %do.body

do.body:                                          ; preds = %if.end40
  %call43 = tail call ptr @__errno_location() #14
  %10 = load i32, ptr %call43, align 4
  %cmp44.not = icmp eq i32 %10, 12
  br i1 %cmp44.not, label %do.end, label %if.then46

if.then46:                                        ; preds = %do.body
  %call48 = tail call ptr @strerror(i32 noundef %10) #13
  %11 = load ptr, ptr @stderr, align 8
  %call49 = tail call i32 (ptr, ptr, ...) @fprintf(ptr noundef %11, ptr noundef nonnull @.str, ptr noundef %call48, ptr noundef nonnull @.str.1, i32 noundef 214) #15
  %12 = load ptr, ptr @stderr, align 8
  %call50 = tail call i32 @fflush(ptr noundef %12)
  tail call void @_ZN3zmq9zmq_abortEPKc(ptr noundef %call48)
  br label %do.end

do.end:                                           ; preds = %do.body, %if.then46
  %call53 = tail call noundef i32 @_ZN3zmq5msg_t4initEv(ptr noundef nonnull align 8 dereferenceable(64) %_in_progress)
  %cmp55.not = icmp eq i32 %call53, 0
  br i1 %cmp55.not, label %do.end65, label %if.then58

if.then58:                                        ; preds = %do.end
  %13 = load i32, ptr %call43, align 4
  %call61 = tail call ptr @strerror(i32 noundef %13) #13
  %14 = load ptr, ptr @stderr, align 8
  %call62 = tail call i32 (ptr, ptr, ...) @fprintf(ptr noundef %14, ptr noundef nonnull @.str, ptr noundef %call61, ptr noundef nonnull @.str.1, i32 noundef 216) #15
  %15 = load ptr, ptr @stderr, align 8
  %call63 = tail call i32 @fflush(ptr noundef %15)
  tail call void @_ZN3zmq9zmq_abortEPKc(ptr noundef %call61)
  br label %do.end65

do.end65:                                         ; preds = %do.end, %if.then58
  store i32 12, ptr %call43, align 4
  br label %return

if.end67:                                         ; preds = %if.end40
  %_msg_flags = getelementptr inbounds i8, ptr %this, i64 96
  %16 = load i8, ptr %_msg_flags, align 8
  tail call void @_ZN3zmq5msg_t9set_flagsEh(ptr noundef nonnull align 8 dereferenceable(64) %_in_progress, i8 noundef zeroext %16)
  %call70 = tail call noundef ptr @_ZN3zmq5msg_t4dataEv(ptr noundef nonnull align 8 dereferenceable(64) %_in_progress)
  %call72 = tail call noundef i64 @_ZNK3zmq5msg_t4sizeEv(ptr noundef nonnull align 8 dereferenceable(64) %_in_progress)
  %_read_pos.i = getelementptr inbounds i8, ptr %this, i64 24
  store ptr %call70, ptr %_read_pos.i, align 8
  %_to_read.i = getelementptr inbounds i8, ptr %this, i64 32
  store i64 %call72, ptr %_to_read.i, align 8
  %_next.i = getelementptr inbounds i8, ptr %this, i64 8
  store i64 ptrtoint (ptr @_ZN3zmq12ws_decoder_t13message_readyEPKh to i64), ptr %_next.i, align 8
  %_next.repack1.i = getelementptr inbounds i8, ptr %this, i64 16
  store i64 0, ptr %_next.repack1.i, align 8
  br label %return

return:                                           ; preds = %if.end67, %do.end65, %if.then4
  %retval.0 = phi i32 [ -1, %if.then4 ], [ -1, %do.end65 ], [ 0, %if.end67 ]
  ret i32 %retval.0
}